target datalayout = "e-m:e-p270:32:32-p271:32:32-p272:64:64-i64:64-i128:128-f80:128-n8:16:32:64-S128"
target triple = "x86_64-pc-linux-gnu"

%class.CrowdToolState = type <{ %struct.SampleToolState, ptr, ptr, ptr, [3 x float], i32, %struct.dtCrowdAgentDebugInfo, ptr, [128 x %"struct.CrowdToolState::AgentTrail"], %class.ValueHistory, %class.ValueHistory, %struct.CrowdToolParams, i8, [7 x i8] }>
%struct.SampleToolState = type { ptr }
%struct.dtCrowdAgentDebugInfo = type { i32, [3 x float], [3 x float], ptr }
%"struct.CrowdToolState::AgentTrail" = type { [192 x float], i32 }
%class.ValueHistory = type { [256 x float], i32 }
%struct.CrowdToolParams = type { i8, i8, i8, i8, i8, i8, i8, i8, i8, i8, i8, i8, i8, i8, i8, i8, i8, i8, float, i8, float }

; Function Attrs: mustprogress nounwind uwtable
define dso_local void @_ZN14CrowdToolStateD2Ev(ptr noundef nonnull align 8 dereferenceable(101001) %0) unnamed_addr #1 align 2 personality ptr @__gxx_personality_v0 {
  %2 = alloca ptr, align 8
  store ptr %0, ptr %2, align 8
  %3 = load ptr, ptr %2, align 8
  store ptr getelementptr inbounds ({ [9 x ptr] }, ptr @_ZTV14CrowdToolState, i32 0, i32 0, i32 2), ptr %3, align 8
  %4 = getelementptr inbounds %class.CrowdToolState, ptr %3, i32 0, i32 7
  %5 = load ptr, ptr %4, align 8
  invoke void @_Z32dtFreeObstacleAvoidanceDebugDataP28dtObstacleAvoidanceDebugData(ptr noundef %5)
          to label %6 unwind label %7

6:                                                ; preds = %1
  call void @_ZN15SampleToolStateD2Ev(ptr noundef nonnull align 8 dereferenceable(8) %3) #10
  ret void

7:                                                ; preds = %1
  %8 = landingpad { ptr, i32 }
          catch ptr null
  %9 = extractvalue { ptr, i32 } %8, 0
  call void @__clang_call_terminate(ptr %9) #11
  unreachable
}